target datalayout = "e-m:e-p270:32:32-p271:32:32-p272:64:64-i64:64-i128:128-f80:128-n8:16:32:64-S128"
target triple = "x86_64-pc-linux-gnu"

%struct._object = type { %union.anon.41, ptr }
%union.anon.41 = type { i64 }
%struct.PyVarObject = type { %struct._object, i64 }
%struct._typeobject = type { %struct.PyVarObject, ptr, i64, i64, ptr, i64, ptr, ptr, ptr, ptr, ptr, ptr, ptr, ptr, ptr, ptr, ptr, ptr, ptr, i64, ptr, ptr, ptr, ptr, i64, ptr, ptr, ptr, ptr, ptr, ptr, ptr, ptr, ptr, i64, ptr, ptr, ptr, ptr, ptr, ptr, ptr, ptr, ptr, ptr, ptr, i32, ptr, ptr, i8, i16 }
%struct.PyNumberMethods = type { ptr, ptr, ptr, ptr, ptr, ptr, ptr, ptr, ptr, ptr, ptr, ptr, ptr, ptr, ptr, ptr, ptr, ptr, ptr, ptr, ptr, ptr, ptr, ptr, ptr, ptr, ptr, ptr, ptr, ptr, ptr, ptr, ptr, ptr, ptr, ptr }

@PyExc_TypeError = external global ptr, align 8
@.str.14 = private unnamed_addr constant [42 x i8] c"interpreter ID must be an int, got %.100s\00", align 1
@PyExc_ValueError = external global ptr, align 8
@.str.15 = private unnamed_addr constant [50 x i8] c"interpreter ID must be a non-negative int, got %R\00", align 1

; Function Attrs: inlinehint nounwind uwtable
define internal ptr @_Py_TYPE(ptr noundef %0) #1 {
  %2 = alloca ptr, align 8
  store ptr %0, ptr %2, align 8, !tbaa !216
  %3 = load ptr, ptr %2, align 8, !tbaa !216
  %4 = getelementptr inbounds nuw %struct._object, ptr %3, i32 0, i32 1
  %5 = load ptr, ptr %4, align 8, !tbaa !262
  ret ptr %5
}

; Function Attrs: inlinehint nounwind uwtable
define internal i32 @_PyIndex_Check(ptr noundef %0) #1 {
  %2 = alloca ptr, align 8
  %3 = alloca ptr, align 8
  store ptr %0, ptr %2, align 8, !tbaa !216
  call void @llvm.lifetime.start.p0(i64 8, ptr %3) #10
  %4 = load ptr, ptr %2, align 8, !tbaa !216
  %5 = call ptr @_Py_TYPE(ptr noundef %4)
  %6 = getelementptr inbounds nuw %struct._typeobject, ptr %5, i32 0, i32 10
  %7 = load ptr, ptr %6, align 8, !tbaa !259
  store ptr %7, ptr %3, align 8, !tbaa !177
  %8 = load ptr, ptr %3, align 8, !tbaa !177
  %9 = icmp ne ptr %8, null
  br i1 %9, label %10, label %15

10:                                               ; preds = %1
  %11 = load ptr, ptr %3, align 8, !tbaa !177
  %12 = getelementptr inbounds nuw %struct.PyNumberMethods, ptr %11, i32 0, i32 33
  %13 = load ptr, ptr %12, align 8, !tbaa !260
  %14 = icmp ne ptr %13, null
  br label %15

15:                                               ; preds = %10, %1
  %16 = phi i1 [ false, %1 ], [ %14, %10 ]
  %17 = zext i1 %16 to i32
  call void @llvm.lifetime.end.p0(i64 8, ptr %3) #10
  ret i32 %17
}

; Function Attrs: nounwind uwtable
define dso_local i64 @_PyInterpreterState_ObjectToID(ptr noundef %0) #0 {
  %2 = alloca i64, align 8
  %3 = alloca ptr, align 8
  %4 = alloca i64, align 8
  %5 = alloca i32, align 4
  store ptr %0, ptr %3, align 8, !tbaa !216
  %6 = load ptr, ptr %3, align 8, !tbaa !216
  %7 = call i32 @_PyIndex_Check(ptr noundef %6)
  %8 = icmp ne i32 %7, 0
  br i1 %8, label %16, label %9

9:                                                ; preds = %1
  %10 = load ptr, ptr @PyExc_TypeError, align 8, !tbaa !216
  %11 = load ptr, ptr %3, align 8, !tbaa !216
  %12 = call ptr @_Py_TYPE(ptr noundef %11)
  %13 = getelementptr inbounds nuw %struct._typeobject, ptr %12, i32 0, i32 1
  %14 = load ptr, ptr %13, align 8, !tbaa !253
  %15 = call ptr (ptr, ptr, ...) @PyErr_Format(ptr noundef %10, ptr noundef @.str.14, ptr noundef %14)
  store i64 -1, ptr %2, align 8
  br label %35

16:                                               ; preds = %1
  call void @llvm.lifetime.start.p0(i64 8, ptr %4) #10
  %17 = load ptr, ptr %3, align 8, !tbaa !216
  %18 = call i64 @PyLong_AsLongLong(ptr noundef %17)
  store i64 %18, ptr %4, align 8, !tbaa !258
  %19 = load i64, ptr %4, align 8, !tbaa !258
  %20 = icmp eq i64 %19, -1
  br i1 %20, label %21, label %25

21:                                               ; preds = %16
  %22 = call ptr @PyErr_Occurred()
  %23 = icmp ne ptr %22, null
  br i1 %23, label %24, label %25

24:                                               ; preds = %21
  store i64 -1, ptr %2, align 8
  store i32 1, ptr %5, align 4
  br label %34

25:                                               ; preds = %21, %16
  %26 = load i64, ptr %4, align 8, !tbaa !258
  %27 = icmp slt i64 %26, 0
  br i1 %27, label %28, label %32

28:                                               ; preds = %25
  %29 = load ptr, ptr @PyExc_ValueError, align 8, !tbaa !216
  %30 = load ptr, ptr %3, align 8, !tbaa !216
  %31 = call ptr (ptr, ptr, ...) @PyErr_Format(ptr noundef %29, ptr noundef @.str.15, ptr noundef %30)
  store i64 -1, ptr %2, align 8
  store i32 1, ptr %5, align 4
  br label %34

32:                                               ; preds = %25
  %33 = load i64, ptr %4, align 8, !tbaa !258
  store i64 %33, ptr %2, align 8
  store i32 1, ptr %5, align 4
  br label %34

34:                                               ; preds = %32, %28, %24
  call void @llvm.lifetime.end.p0(i64 8, ptr %4) #10
  br label %35

35:                                               ; preds = %34, %9
  %36 = load i64, ptr %2, align 8
  ret i64 %36
}