; Function Attrs: nounwind uwtable
define dso_local range(i64 -1, -9223372036854775808) i64 @_PyInterpreterState_ObjectToID(ptr noundef %0) local_unnamed_addr #1 {
  %2 = getelementptr i8, ptr %0, i64 8
  %.val9 = load ptr, ptr %2, align 8, !tbaa !242
  %3 = getelementptr i8, ptr %.val9, i64 96
  %.val9.val = load ptr, ptr %3, align 8, !tbaa !243
  %.not.i = icmp eq ptr %.val9.val, null
  br i1 %.not.i, label %_PyIndex_Check.exit.thread, label %_PyIndex_Check.exit

_PyIndex_Check.exit:                              ; preds = %1
  %4 = getelementptr inbounds nuw i8, ptr %.val9.val, i64 264
  %5 = load ptr, ptr %4, align 8, !tbaa !248
  %.not11 = icmp eq ptr %5, null
  br i1 %.not11, label %_PyIndex_Check.exit.thread, label %10

_PyIndex_Check.exit.thread:                       ; preds = %1, %_PyIndex_Check.exit
  %6 = load ptr, ptr @PyExc_TypeError, align 8, !tbaa !211
  %7 = getelementptr inbounds nuw i8, ptr %.val9, i64 24
  %8 = load ptr, ptr %7, align 8, !tbaa !250
  %9 = tail call ptr (ptr, ptr, ...) @PyErr_Format(ptr noundef %6, ptr noundef nonnull @.str.14, ptr noundef %8) #16
  br label %19

10:                                               ; preds = %_PyIndex_Check.exit
  %11 = tail call i64 @PyLong_AsLongLong(ptr noundef nonnull %0) #16
  %12 = icmp eq i64 %11, -1
  br i1 %12, label %13, label %15

13:                                               ; preds = %10
  %14 = tail call ptr @PyErr_Occurred() #16
  %.not8 = icmp eq ptr %14, null
  br i1 %.not8, label %.thread, label %19

15:                                               ; preds = %10
  %16 = icmp slt i64 %11, 0
  br i1 %16, label %.thread, label %19

.thread:                                          ; preds = %13, %15
  %17 = load ptr, ptr @PyExc_ValueError, align 8, !tbaa !211
  %18 = tail call ptr (ptr, ptr, ...) @PyErr_Format(ptr noundef %17, ptr noundef nonnull @.str.15, ptr noundef nonnull %0) #16
  br label %19

19:                                               ; preds = %.thread, %13, %15, %_PyIndex_Check.exit.thread
  %.0 = phi i64 [ -1, %_PyIndex_Check.exit.thread ], [ -1, %.thread ], [ -1, %13 ], [ %11, %15 ]
  ret i64 %.0
}